target datalayout = "e-m:e-p270:32:32-p271:32:32-p272:64:64-i64:64-i128:128-f80:128-n8:16:32:64-S128"
target triple = "x86_64-pc-linux-gnu"

%struct.jpeg_decompress_struct = type { ptr, ptr, ptr, ptr, i32, i32, ptr, i32, i32, i32, i32, i32, i32, i32, double, i32, i32, i32, i32, i32, i32, i32, i32, i32, i32, i32, i32, i32, i32, i32, i32, i32, i32, ptr, i32, i32, i32, i32, i32, ptr, [4 x ptr], [4 x ptr], [4 x ptr], i32, ptr, i32, i32, [16 x i8], [16 x i8], [16 x i8], i32, i32, i8, i8, i8, i16, i16, i32, i8, i32, ptr, i32, i32, i32, i32, ptr, i32, [4 x ptr], i32, i32, i32, [10 x i32], i32, i32, i32, i32, i32, ptr, ptr, ptr, ptr, ptr, ptr, ptr, ptr, ptr, ptr, ptr }
%struct.jpeg_error_mgr = type { ptr, ptr, ptr, ptr, ptr, i32, %union.anon, i32, i64, ptr, i32, ptr, i32, i32 }
%union.anon = type { [8 x i32], [48 x i8] }

; Function Attrs: nounwind uwtable
define internal i32 @pbm_getc(ptr noundef %0) #0 {
  %2 = alloca ptr, align 8
  %3 = alloca i32, align 4
  store ptr %0, ptr %2, align 8
  %4 = load ptr, ptr %2, align 8
  %5 = call i32 @getc(ptr noundef %4)
  store i32 %5, ptr %3, align 4
  %6 = load i32, ptr %3, align 4
  %7 = icmp eq i32 %6, 35
  br i1 %7, label %8, label %21

8:                                                ; preds = %1
  br label %9

9:                                                ; preds = %18, %8
  %10 = load ptr, ptr %2, align 8
  %11 = call i32 @getc(ptr noundef %10)
  store i32 %11, ptr %3, align 4
  br label %12

12:                                               ; preds = %9
  %13 = load i32, ptr %3, align 4
  %14 = icmp ne i32 %13, 10
  br i1 %14, label %15, label %18

15:                                               ; preds = %12
  %16 = load i32, ptr %3, align 4
  %17 = icmp ne i32 %16, -1
  br label %18

18:                                               ; preds = %15, %12
  %19 = phi i1 [ false, %12 ], [ %17, %15 ]
  br i1 %19, label %9, label %20, !llvm.loop !15

20:                                               ; preds = %18
  br label %21

21:                                               ; preds = %20, %1
  %22 = load i32, ptr %3, align 4
  ret i32 %22
}

; Function Attrs: nounwind uwtable
define internal i32 @read_pbm_integer(ptr noundef %0, ptr noundef %1) #0 {
  %3 = alloca ptr, align 8
  %4 = alloca ptr, align 8
  %5 = alloca i32, align 4
  %6 = alloca i32, align 4
  store ptr %0, ptr %3, align 8
  store ptr %1, ptr %4, align 8
  br label %7

7:                                                ; preds = %36, %2
  %8 = load ptr, ptr %4, align 8
  %9 = call i32 @pbm_getc(ptr noundef %8)
  store i32 %9, ptr %5, align 4
  %10 = load i32, ptr %5, align 4
  %11 = icmp eq i32 %10, -1
  br i1 %11, label %12, label %23

12:                                               ; preds = %7
  %13 = load ptr, ptr %3, align 8
  %14 = getelementptr inbounds %struct.jpeg_decompress_struct, ptr %13, i32 0, i32 0
  %15 = load ptr, ptr %14, align 8
  %16 = getelementptr inbounds %struct.jpeg_error_mgr, ptr %15, i32 0, i32 5
  store i32 1043, ptr %16, align 8
  %17 = load ptr, ptr %3, align 8
  %18 = getelementptr inbounds %struct.jpeg_decompress_struct, ptr %17, i32 0, i32 0
  %19 = load ptr, ptr %18, align 8
  %20 = getelementptr inbounds %struct.jpeg_error_mgr, ptr %19, i32 0, i32 0
  %21 = load ptr, ptr %20, align 8
  %22 = load ptr, ptr %3, align 8
  call void %21(ptr noundef %22)
  br label %23

23:                                               ; preds = %12, %7
  br label %24

24:                                               ; preds = %23
  %25 = load i32, ptr %5, align 4
  %26 = icmp eq i32 %25, 32
  br i1 %26, label %36, label %27

27:                                               ; preds = %24
  %28 = load i32, ptr %5, align 4
  %29 = icmp eq i32 %28, 9
  br i1 %29, label %36, label %30

30:                                               ; preds = %27
  %31 = load i32, ptr %5, align 4
  %32 = icmp eq i32 %31, 10
  br i1 %32, label %36, label %33

33:                                               ; preds = %30
  %34 = load i32, ptr %5, align 4
  %35 = icmp eq i32 %34, 13
  br label %36

36:                                               ; preds = %33, %30, %27, %24
  %37 = phi i1 [ true, %30 ], [ true, %27 ], [ true, %24 ], [ %35, %33 ]
  br i1 %37, label %7, label %38, !llvm.loop !13

38:                                               ; preds = %36
  %39 = load i32, ptr %5, align 4
  %40 = icmp slt i32 %39, 48
  br i1 %40, label %44, label %41

41:                                               ; preds = %38
  %42 = load i32, ptr %5, align 4
  %43 = icmp sgt i32 %42, 57
  br i1 %43, label %44, label %55

44:                                               ; preds = %41, %38
  %45 = load ptr, ptr %3, align 8
  %46 = getelementptr inbounds %struct.jpeg_decompress_struct, ptr %45, i32 0, i32 0
  %47 = load ptr, ptr %46, align 8
  %48 = getelementptr inbounds %struct.jpeg_error_mgr, ptr %47, i32 0, i32 5
  store i32 1043, ptr %48, align 8
  %49 = load ptr, ptr %3, align 8
  %50 = getelementptr inbounds %struct.jpeg_decompress_struct, ptr %49, i32 0, i32 0
  %51 = load ptr, ptr %50, align 8
  %52 = getelementptr inbounds %struct.jpeg_error_mgr, ptr %51, i32 0, i32 0
  %53 = load ptr, ptr %52, align 8
  %54 = load ptr, ptr %3, align 8
  call void %53(ptr noundef %54)
  br label %55

55:                                               ; preds = %44, %41
  %56 = load i32, ptr %5, align 4
  %57 = sub nsw i32 %56, 48
  store i32 %57, ptr %6, align 4
  br label %58

58:                                               ; preds = %67, %55
  %59 = load ptr, ptr %4, align 8
  %60 = call i32 @pbm_getc(ptr noundef %59)
  store i32 %60, ptr %5, align 4
  %61 = icmp sge i32 %60, 48
  br i1 %61, label %62, label %65

62:                                               ; preds = %58
  %63 = load i32, ptr %5, align 4
  %64 = icmp sle i32 %63, 57
  br label %65

65:                                               ; preds = %62, %58
  %66 = phi i1 [ false, %58 ], [ %64, %62 ]
  br i1 %66, label %67, label %74

67:                                               ; preds = %65
  %68 = load i32, ptr %6, align 4
  %69 = mul i32 %68, 10
  store i32 %69, ptr %6, align 4
  %70 = load i32, ptr %5, align 4
  %71 = sub nsw i32 %70, 48
  %72 = load i32, ptr %6, align 4
  %73 = add i32 %72, %71
  store i32 %73, ptr %6, align 4
  br label %58, !llvm.loop !14

74:                                               ; preds = %65
  %75 = load i32, ptr %6, align 4
  ret i32 %75
}