; Function Attrs: nounwind uwtable
define internal fastcc i32 @read_pbm_integer(ptr noundef %0, ptr nocapture noundef %1) unnamed_addr #0 {
  br label %.critedge

.critedge:                                        ; preds = %.critedge.backedge, %2
  %3 = tail call i32 @getc(ptr noundef %1)
  %4 = icmp eq i32 %3, 35
  br i1 %4, label %.preheader.i, label %pbm_getc.exit

.preheader.i:                                     ; preds = %.critedge, %.preheader.i
  %5 = tail call i32 @getc(ptr noundef %1)
  switch i32 %5, label %.preheader.i [
    i32 -1, label %pbm_getc.exit
    i32 10, label %pbm_getc.exit
  ]

pbm_getc.exit:                                    ; preds = %.preheader.i, %.preheader.i, %.critedge
  %.0.i = phi i32 [ %3, %.critedge ], [ %5, %.preheader.i ], [ %5, %.preheader.i ]
  switch i32 %.0.i, label %10 [
    i32 -1, label %.thread
    i32 32, label %.critedge.backedge
    i32 13, label %.critedge.backedge
    i32 10, label %.critedge.backedge
    i32 9, label %.critedge.backedge
  ]

.critedge.backedge:                               ; preds = %pbm_getc.exit, %pbm_getc.exit, %pbm_getc.exit, %pbm_getc.exit
  br label %.critedge

.thread:                                          ; preds = %pbm_getc.exit
  %6 = load ptr, ptr %0, align 8
  %7 = getelementptr inbounds i8, ptr %6, i64 40
  store i32 1043, ptr %7, align 8
  %8 = load ptr, ptr %0, align 8
  %9 = load ptr, ptr %8, align 8
  tail call void %9(ptr noundef nonnull %0) #3
  br label %12

10:                                               ; preds = %pbm_getc.exit
  %11 = add i32 %.0.i, -58
  %or.cond5 = icmp ult i32 %11, -10
  br i1 %or.cond5, label %12, label %17

12:                                               ; preds = %.thread, %10
  %13 = load ptr, ptr %0, align 8
  %14 = getelementptr inbounds i8, ptr %13, i64 40
  store i32 1043, ptr %14, align 8
  %15 = load ptr, ptr %0, align 8
  %16 = load ptr, ptr %15, align 8
  tail call void %16(ptr noundef nonnull %0) #3
  br label %17

17:                                               ; preds = %10, %12
  %18 = add nsw i32 %.0.i, -48
  br label %19

19:                                               ; preds = %25, %17
  %.0 = phi i32 [ %18, %17 ], [ %27, %25 ]
  %20 = tail call i32 @getc(ptr noundef %1)
  %21 = icmp eq i32 %20, 35
  br i1 %21, label %.preheader.i30, label %pbm_getc.exit31

.preheader.i30:                                   ; preds = %19, %.preheader.i30
  %22 = tail call i32 @getc(ptr noundef %1)
  switch i32 %22, label %.preheader.i30 [
    i32 -1, label %pbm_getc.exit31
    i32 10, label %pbm_getc.exit31
  ]

pbm_getc.exit31:                                  ; preds = %.preheader.i30, %.preheader.i30, %19
  %.0.i29 = phi i32 [ %20, %19 ], [ %22, %.preheader.i30 ], [ %22, %.preheader.i30 ]
  %23 = add i32 %.0.i29, -48
  %24 = icmp ult i32 %23, 10
  br i1 %24, label %25, label %28

25:                                               ; preds = %pbm_getc.exit31
  %26 = mul i32 %.0, 10
  %27 = add i32 %23, %26
  br label %19, !llvm.loop !12

28:                                               ; preds = %pbm_getc.exit31
  ret i32 %.0
}